; Function Attrs: nounwind sspstrong uwtable
define internal noundef i64 @rb_gzwriter_putc(i64 noundef %0, i64 noundef returned %1) #0 {
  %3 = alloca i8, align 1
  %4 = tail call ptr @rb_check_typeddata(i64 noundef %0, ptr noundef nonnull @gzfile_data_type) #18
  %5 = load i64, ptr %4, align 8, !tbaa !113
  %6 = and i64 %5, 1
  %.not.i = icmp eq i64 %6, 0
  br i1 %.not.i, label %7, label %get_gzfile.exit

7:                                                ; preds = %2
  %8 = load i64, ptr @cGzError, align 8, !tbaa !6
  tail call void (i64, ptr, ...) @rb_raise(i64 noundef %8, ptr noundef nonnull @.str.165) #19
  unreachable

get_gzfile.exit:                                  ; preds = %2
  call void @llvm.lifetime.start.p0(i64 1, ptr nonnull %3) #18
  %9 = icmp eq i64 %1, 0
  %10 = and i64 %1, 7
  %11 = icmp ne i64 %10, 0
  %12 = or i1 %9, %11
  br i1 %12, label %rbimpl_RB_TYPE_P_fastpath.exit.thread.i, label %rbimpl_RB_TYPE_P_fastpath.exit.i

rbimpl_RB_TYPE_P_fastpath.exit.i:                 ; preds = %get_gzfile.exit
  %13 = inttoptr i64 %1 to ptr
  %14 = load i64, ptr %13, align 8, !tbaa !16
  %15 = and i64 %14, 31
  %16 = icmp eq i64 %15, 5
  br i1 %16, label %17, label %rbimpl_RB_TYPE_P_fastpath.exit.thread.i

17:                                               ; preds = %rbimpl_RB_TYPE_P_fastpath.exit.i
  %18 = getelementptr inbounds nuw i8, ptr %13, i64 16
  %19 = load i64, ptr %18, align 8, !tbaa !21
  %20 = icmp sgt i64 %19, 0
  br i1 %20, label %21, label %rbimpl_RB_TYPE_P_fastpath.exit.thread.i

21:                                               ; preds = %17
  %22 = and i64 %14, 8192
  %.not.i.i.i = icmp eq i64 %22, 0
  %23 = getelementptr inbounds nuw i8, ptr %13, i64 24
  br i1 %.not.i.i.i, label %RSTRING_PTR.exit.i, label %24

24:                                               ; preds = %21
  %.sroa.2.0.copyload.i.i = load ptr, ptr %23, align 8
  br label %RSTRING_PTR.exit.i

RSTRING_PTR.exit.i:                               ; preds = %24, %21
  %.sroa.2.0.i.i = phi ptr [ %.sroa.2.0.copyload.i.i, %24 ], [ %23, %21 ]
  %25 = load i8, ptr %.sroa.2.0.i.i, align 1, !tbaa !149
  br label %rb_num2char_inline.exit

rbimpl_RB_TYPE_P_fastpath.exit.thread.i:          ; preds = %17, %rbimpl_RB_TYPE_P_fastpath.exit.i, %get_gzfile.exit
  %26 = and i64 %1, 1
  %.not.i.i = icmp eq i64 %26, 0
  br i1 %.not.i.i, label %29, label %27

27:                                               ; preds = %rbimpl_RB_TYPE_P_fastpath.exit.thread.i
  %28 = tail call i64 @rb_fix2int(i64 noundef %1) #18
  br label %rb_num2int_inline.exit.i

29:                                               ; preds = %rbimpl_RB_TYPE_P_fastpath.exit.thread.i
  %30 = tail call i64 @rb_num2int(i64 noundef %1) #18
  br label %rb_num2int_inline.exit.i

rb_num2int_inline.exit.i:                         ; preds = %29, %27
  %.0.i5.i = phi i64 [ %28, %27 ], [ %30, %29 ]
  %31 = trunc i64 %.0.i5.i to i8
  br label %rb_num2char_inline.exit

rb_num2char_inline.exit:                          ; preds = %RSTRING_PTR.exit.i, %rb_num2int_inline.exit.i
  %.0.i = phi i8 [ %25, %RSTRING_PTR.exit.i ], [ %31, %rb_num2int_inline.exit.i ]
  store i8 %.0.i, ptr %3, align 1, !tbaa !149
  call fastcc void @gzfile_write(ptr noundef nonnull %4, ptr noundef nonnull %3, i64 noundef 1)
  call void @llvm.lifetime.end.p0(i64 1, ptr nonnull %3) #18
  ret i64 %1
}